target datalayout = "e-m:e-p270:32:32-p271:32:32-p272:64:64-i64:64-i128:128-f80:128-n8:16:32:64-S128"
target triple = "x86_64-pc-linux-gnu"

%struct.rc2_key_st = type { [64 x i32] }

; Function Attrs: nounwind uwtable
define void @RC2_encrypt(ptr noundef %0, ptr noundef %1) #0 {
  %3 = alloca ptr, align 8
  %4 = alloca ptr, align 8
  %5 = alloca i32, align 4
  %6 = alloca i32, align 4
  %7 = alloca ptr, align 8
  %8 = alloca ptr, align 8
  %9 = alloca i32, align 4
  %10 = alloca i32, align 4
  %11 = alloca i32, align 4
  %12 = alloca i32, align 4
  %13 = alloca i32, align 4
  %14 = alloca i64, align 8
  store ptr %0, ptr %3, align 8, !tbaa !18
  store ptr %1, ptr %4, align 8, !tbaa !10
  call void @llvm.lifetime.start.p0(i64 4, ptr %5) #2
  call void @llvm.lifetime.start.p0(i64 4, ptr %6) #2
  call void @llvm.lifetime.start.p0(i64 8, ptr %7) #2
  call void @llvm.lifetime.start.p0(i64 8, ptr %8) #2
  call void @llvm.lifetime.start.p0(i64 4, ptr %9) #2
  call void @llvm.lifetime.start.p0(i64 4, ptr %10) #2
  call void @llvm.lifetime.start.p0(i64 4, ptr %11) #2
  call void @llvm.lifetime.start.p0(i64 4, ptr %12) #2
  call void @llvm.lifetime.start.p0(i64 4, ptr %13) #2
  call void @llvm.lifetime.start.p0(i64 8, ptr %14) #2
  %15 = load ptr, ptr %3, align 8, !tbaa !18
  %16 = getelementptr inbounds i64, ptr %15, i64 0
  %17 = load i64, ptr %16, align 8, !tbaa !8
  store i64 %17, ptr %14, align 8, !tbaa !8
  %18 = load i64, ptr %14, align 8, !tbaa !8
  %19 = trunc i64 %18 to i32
  %20 = and i32 %19, 65535
  store i32 %20, ptr %9, align 4, !tbaa !12
  %21 = load i64, ptr %14, align 8, !tbaa !8
  %22 = lshr i64 %21, 16
  %23 = trunc i64 %22 to i32
  store i32 %23, ptr %10, align 4, !tbaa !12
  %24 = load ptr, ptr %3, align 8, !tbaa !18
  %25 = getelementptr inbounds i64, ptr %24, i64 1
  %26 = load i64, ptr %25, align 8, !tbaa !8
  store i64 %26, ptr %14, align 8, !tbaa !8
  %27 = load i64, ptr %14, align 8, !tbaa !8
  %28 = trunc i64 %27 to i32
  %29 = and i32 %28, 65535
  store i32 %29, ptr %11, align 4, !tbaa !12
  %30 = load i64, ptr %14, align 8, !tbaa !8
  %31 = lshr i64 %30, 16
  %32 = trunc i64 %31 to i32
  store i32 %32, ptr %12, align 4, !tbaa !12
  store i32 3, ptr %6, align 4, !tbaa !12
  store i32 5, ptr %5, align 4, !tbaa !12
  %33 = load ptr, ptr %4, align 8, !tbaa !10
  %34 = getelementptr inbounds nuw %struct.rc2_key_st, ptr %33, i32 0, i32 0
  %35 = getelementptr inbounds [64 x i32], ptr %34, i64 0, i64 0
  store ptr %35, ptr %8, align 8, !tbaa !20
  store ptr %35, ptr %7, align 8, !tbaa !20
  br label %36

36:                                               ; preds = %161, %2
  %37 = load i32, ptr %9, align 4, !tbaa !12
  %38 = load i32, ptr %10, align 4, !tbaa !12
  %39 = load i32, ptr %12, align 4, !tbaa !12
  %40 = xor i32 %39, -1
  %41 = and i32 %38, %40
  %42 = add i32 %37, %41
  %43 = load i32, ptr %11, align 4, !tbaa !12
  %44 = load i32, ptr %12, align 4, !tbaa !12
  %45 = and i32 %43, %44
  %46 = add i32 %42, %45
  %47 = load ptr, ptr %7, align 8, !tbaa !20
  %48 = getelementptr inbounds nuw i32, ptr %47, i32 1
  store ptr %48, ptr %7, align 8, !tbaa !20
  %49 = load i32, ptr %47, align 4, !tbaa !12
  %50 = add i32 %46, %49
  %51 = and i32 %50, 65535
  store i32 %51, ptr %13, align 4, !tbaa !12
  %52 = load i32, ptr %13, align 4, !tbaa !12
  %53 = shl i32 %52, 1
  %54 = load i32, ptr %13, align 4, !tbaa !12
  %55 = lshr i32 %54, 15
  %56 = or i32 %53, %55
  store i32 %56, ptr %9, align 4, !tbaa !12
  %57 = load i32, ptr %10, align 4, !tbaa !12
  %58 = load i32, ptr %11, align 4, !tbaa !12
  %59 = load i32, ptr %9, align 4, !tbaa !12
  %60 = xor i32 %59, -1
  %61 = and i32 %58, %60
  %62 = add i32 %57, %61
  %63 = load i32, ptr %12, align 4, !tbaa !12
  %64 = load i32, ptr %9, align 4, !tbaa !12
  %65 = and i32 %63, %64
  %66 = add i32 %62, %65
  %67 = load ptr, ptr %7, align 8, !tbaa !20
  %68 = getelementptr inbounds nuw i32, ptr %67, i32 1
  store ptr %68, ptr %7, align 8, !tbaa !20
  %69 = load i32, ptr %67, align 4, !tbaa !12
  %70 = add i32 %66, %69
  %71 = and i32 %70, 65535
  store i32 %71, ptr %13, align 4, !tbaa !12
  %72 = load i32, ptr %13, align 4, !tbaa !12
  %73 = shl i32 %72, 2
  %74 = load i32, ptr %13, align 4, !tbaa !12
  %75 = lshr i32 %74, 14
  %76 = or i32 %73, %75
  store i32 %76, ptr %10, align 4, !tbaa !12
  %77 = load i32, ptr %11, align 4, !tbaa !12
  %78 = load i32, ptr %12, align 4, !tbaa !12
  %79 = load i32, ptr %10, align 4, !tbaa !12
  %80 = xor i32 %79, -1
  %81 = and i32 %78, %80
  %82 = add i32 %77, %81
  %83 = load i32, ptr %9, align 4, !tbaa !12
  %84 = load i32, ptr %10, align 4, !tbaa !12
  %85 = and i32 %83, %84
  %86 = add i32 %82, %85
  %87 = load ptr, ptr %7, align 8, !tbaa !20
  %88 = getelementptr inbounds nuw i32, ptr %87, i32 1
  store ptr %88, ptr %7, align 8, !tbaa !20
  %89 = load i32, ptr %87, align 4, !tbaa !12
  %90 = add i32 %86, %89
  %91 = and i32 %90, 65535
  store i32 %91, ptr %13, align 4, !tbaa !12
  %92 = load i32, ptr %13, align 4, !tbaa !12
  %93 = shl i32 %92, 3
  %94 = load i32, ptr %13, align 4, !tbaa !12
  %95 = lshr i32 %94, 13
  %96 = or i32 %93, %95
  store i32 %96, ptr %11, align 4, !tbaa !12
  %97 = load i32, ptr %12, align 4, !tbaa !12
  %98 = load i32, ptr %9, align 4, !tbaa !12
  %99 = load i32, ptr %11, align 4, !tbaa !12
  %100 = xor i32 %99, -1
  %101 = and i32 %98, %100
  %102 = add i32 %97, %101
  %103 = load i32, ptr %10, align 4, !tbaa !12
  %104 = load i32, ptr %11, align 4, !tbaa !12
  %105 = and i32 %103, %104
  %106 = add i32 %102, %105
  %107 = load ptr, ptr %7, align 8, !tbaa !20
  %108 = getelementptr inbounds nuw i32, ptr %107, i32 1
  store ptr %108, ptr %7, align 8, !tbaa !20
  %109 = load i32, ptr %107, align 4, !tbaa !12
  %110 = add i32 %106, %109
  %111 = and i32 %110, 65535
  store i32 %111, ptr %13, align 4, !tbaa !12
  %112 = load i32, ptr %13, align 4, !tbaa !12
  %113 = shl i32 %112, 5
  %114 = load i32, ptr %13, align 4, !tbaa !12
  %115 = lshr i32 %114, 11
  %116 = or i32 %113, %115
  store i32 %116, ptr %12, align 4, !tbaa !12
  %117 = load i32, ptr %5, align 4, !tbaa !12
  %118 = add nsw i32 %117, -1
  store i32 %118, ptr %5, align 4, !tbaa !12
  %119 = icmp eq i32 %118, 0
  br i1 %119, label %120, label %161

120:                                              ; preds = %36
  %121 = load i32, ptr %6, align 4, !tbaa !12
  %122 = add nsw i32 %121, -1
  store i32 %122, ptr %6, align 4, !tbaa !12
  %123 = icmp eq i32 %122, 0
  br i1 %123, label %124, label %125

124:                                              ; preds = %120
  br label %162

125:                                              ; preds = %120
  %126 = load i32, ptr %6, align 4, !tbaa !12
  %127 = icmp eq i32 %126, 2
  %128 = select i1 %127, i32 6, i32 5
  store i32 %128, ptr %5, align 4, !tbaa !12
  %129 = load ptr, ptr %8, align 8, !tbaa !20
  %130 = load i32, ptr %12, align 4, !tbaa !12
  %131 = and i32 %130, 63
  %132 = zext i32 %131 to i64
  %133 = getelementptr inbounds nuw i32, ptr %129, i64 %132
  %134 = load i32, ptr %133, align 4, !tbaa !12
  %135 = load i32, ptr %9, align 4, !tbaa !12
  %136 = add i32 %135, %134
  store i32 %136, ptr %9, align 4, !tbaa !12
  %137 = load ptr, ptr %8, align 8, !tbaa !20
  %138 = load i32, ptr %9, align 4, !tbaa !12
  %139 = and i32 %138, 63
  %140 = zext i32 %139 to i64
  %141 = getelementptr inbounds nuw i32, ptr %137, i64 %140
  %142 = load i32, ptr %141, align 4, !tbaa !12
  %143 = load i32, ptr %10, align 4, !tbaa !12
  %144 = add i32 %143, %142
  store i32 %144, ptr %10, align 4, !tbaa !12
  %145 = load ptr, ptr %8, align 8, !tbaa !20
  %146 = load i32, ptr %10, align 4, !tbaa !12
  %147 = and i32 %146, 63
  %148 = zext i32 %147 to i64
  %149 = getelementptr inbounds nuw i32, ptr %145, i64 %148
  %150 = load i32, ptr %149, align 4, !tbaa !12
  %151 = load i32, ptr %11, align 4, !tbaa !12
  %152 = add i32 %151, %150
  store i32 %152, ptr %11, align 4, !tbaa !12
  %153 = load ptr, ptr %8, align 8, !tbaa !20
  %154 = load i32, ptr %11, align 4, !tbaa !12
  %155 = and i32 %154, 63
  %156 = zext i32 %155 to i64
  %157 = getelementptr inbounds nuw i32, ptr %153, i64 %156
  %158 = load i32, ptr %157, align 4, !tbaa !12
  %159 = load i32, ptr %12, align 4, !tbaa !12
  %160 = add i32 %159, %158
  store i32 %160, ptr %12, align 4, !tbaa !12
  br label %161

161:                                              ; preds = %125, %36
  br label %36

162:                                              ; preds = %124
  %163 = load i32, ptr %9, align 4, !tbaa !12
  %164 = and i32 %163, 65535
  %165 = zext i32 %164 to i64
  %166 = load i32, ptr %10, align 4, !tbaa !12
  %167 = and i32 %166, 65535
  %168 = zext i32 %167 to i64
  %169 = shl i64 %168, 16
  %170 = or i64 %165, %169
  %171 = load ptr, ptr %3, align 8, !tbaa !18
  %172 = getelementptr inbounds i64, ptr %171, i64 0
  store i64 %170, ptr %172, align 8, !tbaa !8
  %173 = load i32, ptr %11, align 4, !tbaa !12
  %174 = and i32 %173, 65535
  %175 = zext i32 %174 to i64
  %176 = load i32, ptr %12, align 4, !tbaa !12
  %177 = and i32 %176, 65535
  %178 = zext i32 %177 to i64
  %179 = shl i64 %178, 16
  %180 = or i64 %175, %179
  %181 = load ptr, ptr %3, align 8, !tbaa !18
  %182 = getelementptr inbounds i64, ptr %181, i64 1
  store i64 %180, ptr %182, align 8, !tbaa !8
  call void @llvm.lifetime.end.p0(i64 8, ptr %14) #2
  call void @llvm.lifetime.end.p0(i64 4, ptr %13) #2
  call void @llvm.lifetime.end.p0(i64 4, ptr %12) #2
  call void @llvm.lifetime.end.p0(i64 4, ptr %11) #2
  call void @llvm.lifetime.end.p0(i64 4, ptr %10) #2
  call void @llvm.lifetime.end.p0(i64 4, ptr %9) #2
  call void @llvm.lifetime.end.p0(i64 8, ptr %8) #2
  call void @llvm.lifetime.end.p0(i64 8, ptr %7) #2
  call void @llvm.lifetime.end.p0(i64 4, ptr %6) #2
  call void @llvm.lifetime.end.p0(i64 4, ptr %5) #2
  ret void
}