; Function Attrs: nofree norecurse nosync nounwind memory(argmem: readwrite) uwtable
define void @RC2_encrypt(ptr noundef captures(none) %0, ptr noundef readonly captures(none) %1) local_unnamed_addr #2 {
  %3 = load i64, ptr %0, align 8, !tbaa !3
  %4 = trunc i64 %3 to i32
  %5 = lshr i64 %3, 16
  %6 = trunc i64 %5 to i32
  %7 = getelementptr inbounds nuw i8, ptr %0, i64 8
  %8 = load i64, ptr %7, align 8, !tbaa !3
  %9 = trunc i64 %8 to i32
  %10 = lshr i64 %8, 16
  %11 = trunc i64 %10 to i32
  br label %.outer

.outer:                                           ; preds = %66, %2
  %.069.ph = phi ptr [ %52, %66 ], [ %1, %2 ]
  %.067.ph = phi i32 [ %73, %66 ], [ %4, %2 ]
  %.065.ph = phi i32 [ %78, %66 ], [ %6, %2 ]
  %.063.ph = phi i32 [ %83, %66 ], [ %9, %2 ]
  %.061.ph = phi i32 [ %88, %66 ], [ %11, %2 ]
  %.059.ph = phi i32 [ %64, %66 ], [ 3, %2 ]
  %.0.ph = phi i32 [ %68, %66 ], [ 5, %2 ]
  br label %12

12:                                               ; preds = %.outer, %12
  %.069 = phi ptr [ %52, %12 ], [ %.069.ph, %.outer ]
  %.067 = phi i32 [ %24, %12 ], [ %.067.ph, %.outer ]
  %.065 = phi i32 [ %36, %12 ], [ %.065.ph, %.outer ]
  %.063 = phi i32 [ %48, %12 ], [ %.063.ph, %.outer ]
  %.061 = phi i32 [ %60, %12 ], [ %.061.ph, %.outer ]
  %.0 = phi i32 [ %61, %12 ], [ %.0.ph, %.outer ]
  %13 = xor i32 %.061, -1
  %14 = and i32 %.065, %13
  %15 = add i32 %14, %.067
  %16 = and i32 %.061, %.063
  %17 = add i32 %15, %16
  %18 = getelementptr inbounds nuw i8, ptr %.069, i64 4
  %19 = load i32, ptr %.069, align 4, !tbaa !11
  %20 = add i32 %17, %19
  %21 = and i32 %20, 65535
  %22 = shl nuw nsw i32 %21, 1
  %23 = lshr i32 %21, 15
  %24 = or disjoint i32 %22, %23
  %25 = xor i32 %24, -1
  %26 = and i32 %.063, %25
  %27 = and i32 %24, %.061
  %28 = getelementptr inbounds nuw i8, ptr %.069, i64 8
  %29 = load i32, ptr %18, align 4, !tbaa !11
  %30 = add i32 %29, %.065
  %31 = add i32 %30, %26
  %32 = add i32 %31, %27
  %33 = and i32 %32, 65535
  %34 = shl nuw nsw i32 %33, 2
  %35 = lshr i32 %33, 14
  %36 = or disjoint i32 %34, %35
  %37 = xor i32 %36, -1
  %38 = and i32 %.061, %37
  %39 = and i32 %36, %24
  %40 = getelementptr inbounds nuw i8, ptr %.069, i64 12
  %41 = load i32, ptr %28, align 4, !tbaa !11
  %42 = add i32 %41, %.063
  %43 = add i32 %42, %38
  %44 = add i32 %43, %39
  %45 = and i32 %44, 65535
  %46 = shl nuw nsw i32 %45, 3
  %47 = lshr i32 %45, 13
  %48 = or disjoint i32 %46, %47
  %49 = xor i32 %48, -1
  %50 = and i32 %24, %49
  %51 = and i32 %48, %36
  %52 = getelementptr inbounds nuw i8, ptr %.069, i64 16
  %53 = load i32, ptr %40, align 4, !tbaa !11
  %54 = add i32 %53, %.061
  %55 = add i32 %54, %50
  %56 = add i32 %55, %51
  %57 = and i32 %56, 65535
  %58 = shl nuw nsw i32 %57, 5
  %59 = lshr i32 %57, 11
  %60 = or disjoint i32 %58, %59
  %61 = add nsw i32 %.0, -1
  %62 = icmp eq i32 %61, 0
  br i1 %62, label %63, label %12

63:                                               ; preds = %12
  %64 = add nsw i32 %.059.ph, -1
  %65 = icmp eq i32 %64, 0
  br i1 %65, label %89, label %66

66:                                               ; preds = %63
  %67 = icmp eq i32 %64, 2
  %68 = select i1 %67, i32 6, i32 5
  %69 = and i32 %60, 63
  %70 = zext nneg i32 %69 to i64
  %71 = getelementptr inbounds nuw i32, ptr %1, i64 %70
  %72 = load i32, ptr %71, align 4, !tbaa !11
  %73 = add i32 %72, %24
  %74 = and i32 %73, 63
  %75 = zext nneg i32 %74 to i64
  %76 = getelementptr inbounds nuw i32, ptr %1, i64 %75
  %77 = load i32, ptr %76, align 4, !tbaa !11
  %78 = add i32 %77, %36
  %79 = and i32 %78, 63
  %80 = zext nneg i32 %79 to i64
  %81 = getelementptr inbounds nuw i32, ptr %1, i64 %80
  %82 = load i32, ptr %81, align 4, !tbaa !11
  %83 = add i32 %82, %48
  %84 = and i32 %83, 63
  %85 = zext nneg i32 %84 to i64
  %86 = getelementptr inbounds nuw i32, ptr %1, i64 %85
  %87 = load i32, ptr %86, align 4, !tbaa !11
  %88 = add i32 %87, %60
  br label %.outer

89:                                               ; preds = %63
  %90 = and i32 %24, 65535
  %91 = shl i32 %36, 16
  %92 = or disjoint i32 %91, %90
  %93 = zext i32 %92 to i64
  store i64 %93, ptr %0, align 8, !tbaa !3
  %94 = and i32 %48, 65535
  %95 = shl i32 %60, 16
  %96 = or disjoint i32 %95, %94
  %97 = zext i32 %96 to i64
  store i64 %97, ptr %7, align 8, !tbaa !3
  ret void
}